target datalayout = "e-m:e-p270:32:32-p271:32:32-p272:64:64-i64:64-i128:128-f80:128-n8:16:32:64-S128"
target triple = "x86_64-unknown-linux-gnu"

%"class.std::__cxx11::basic_string" = type { %"struct.std::__cxx11::basic_string<char>::_Alloc_hider", i64, %union.anon }
%"struct.std::__cxx11::basic_string<char>::_Alloc_hider" = type { ptr }
%union.anon = type { i64, [8 x i8] }
%"struct.std::__detail::_Hash_node_base" = type { ptr }
%"struct.std::__detail::_Prime_rehash_policy" = type { float, i64 }
%"struct.std::atomic" = type { %"struct.std::__atomic_base" }
%"struct.std::__atomic_base" = type { i64 }
%"class.std::__shared_count" = type { ptr }
%"class.rocksdb::port::RWMutex" = type { %union.pthread_rwlock_t }
%union.pthread_rwlock_t = type { %struct.__pthread_rwlock_arch_t }
%struct.__pthread_rwlock_arch_t = type { i32, i32, i32, i32, i32, i32, i32, i32, i8, [7 x i8], i64, i32 }
%"class.rocksdb::blob_db::BlobDBImpl" = type { %"class.rocksdb::blob_db::BlobDB", %"class.std::__cxx11::basic_string", ptr, ptr, ptr, %"struct.rocksdb::blob_db::BlobDBOptions", %"struct.rocksdb::DBOptions", %"struct.rocksdb::ColumnFamilyOptions", %"struct.rocksdb::FileOptions", ptr, %"class.std::__cxx11::basic_string", %"class.std::unique_ptr", %"class.rocksdb::port::RWMutex", %"class.rocksdb::port::Mutex", %"struct.std::atomic", %"class.std::map", %"class.std::map", i64, %"class.std::shared_ptr.15", %"class.std::set", i8, [7 x i8], %class.TimerQueue, %"struct.std::atomic.131", %"struct.std::atomic", %"struct.std::atomic", i64, i64, %"class.std::__cxx11::list", %"class.rocksdb::port::Mutex", i32, i32 }
%"class.rocksdb::blob_db::BlobDB" = type { %"class.rocksdb::StackableDB" }
%"class.rocksdb::StackableDB" = type { %"class.rocksdb::DB", ptr, %"class.std::shared_ptr.18" }
%"class.rocksdb::DB" = type { ptr }
%"class.std::shared_ptr.18" = type { %"class.std::__shared_ptr.19" }
%"class.std::__shared_ptr.19" = type { ptr, %"class.std::__shared_count" }
%"struct.rocksdb::blob_db::BlobDBOptions" = type <{ %"class.std::__cxx11::basic_string", i8, i8, [6 x i8], i64, i64, i64, i64, i64, i8, i8, [6 x i8], double, i8, [7 x i8] }>
%"struct.rocksdb::DBOptions" = type { i8, i8, i8, i8, i8, i8, i8, i8, ptr, %"class.std::shared_ptr.21", %"class.std::shared_ptr.24", %"class.std::shared_ptr.27", i8, i32, i32, i64, %"class.std::shared_ptr.30", i8, %"class.std::vector.33", %"class.std::__cxx11::basic_string", %"class.std::__cxx11::basic_string", i64, i32, i32, i32, i32, i64, i64, i64, i64, i64, i32, i64, i64, i64, i8, i8, i8, i8, i8, i8, i32, i32, i8, i64, i8, i64, %"class.std::shared_ptr.38", i32, i64, i64, i64, i8, i64, i64, i8, %"class.std::vector.41", i8, i64, i8, i8, i8, i8, i64, i64, i64, i8, i8, i8, i8, %"class.std::shared_ptr.46", ptr, i8, i8, i8, i8, i8, i8, i8, i8, i8, i8, i8, i64, %"class.std::shared_ptr.49", i8, i32, i64, i8, %"class.std::__cxx11::basic_string", %"class.rocksdb::SmallEnumSet", %"class.std::shared_ptr.52", i8, i8, %"class.std::__cxx11::basic_string" }
%"class.std::shared_ptr.21" = type { %"class.std::__shared_ptr.22" }
%"class.std::__shared_ptr.22" = type { ptr, %"class.std::__shared_count" }
%"class.std::shared_ptr.24" = type { %"class.std::__shared_ptr.25" }
%"class.std::__shared_ptr.25" = type { ptr, %"class.std::__shared_count" }
%"class.std::shared_ptr.27" = type { %"class.std::__shared_ptr.28" }
%"class.std::__shared_ptr.28" = type { ptr, %"class.std::__shared_count" }
%"class.std::shared_ptr.30" = type { %"class.std::__shared_ptr.31" }
%"class.std::__shared_ptr.31" = type { ptr, %"class.std::__shared_count" }
%"class.std::vector.33" = type { %"struct.std::_Vector_base.34" }
%"struct.std::_Vector_base.34" = type { %"struct.std::_Vector_base<rocksdb::DbPath, std::allocator<rocksdb::DbPath>>::_Vector_impl" }
%"struct.std::_Vector_base<rocksdb::DbPath, std::allocator<rocksdb::DbPath>>::_Vector_impl" = type { %"struct.std::_Vector_base<rocksdb::DbPath, std::allocator<rocksdb::DbPath>>::_Vector_impl_data" }
%"struct.std::_Vector_base<rocksdb::DbPath, std::allocator<rocksdb::DbPath>>::_Vector_impl_data" = type { ptr, ptr, ptr }
%"class.std::shared_ptr.38" = type { %"class.std::__shared_ptr.39" }
%"class.std::__shared_ptr.39" = type { ptr, %"class.std::__shared_count" }
%"class.std::vector.41" = type { %"struct.std::_Vector_base.42" }
%"struct.std::_Vector_base.42" = type { %"struct.std::_Vector_base<std::shared_ptr<rocksdb::EventListener>, std::allocator<std::shared_ptr<rocksdb::EventListener>>>::_Vector_impl" }
%"struct.std::_Vector_base<std::shared_ptr<rocksdb::EventListener>, std::allocator<std::shared_ptr<rocksdb::EventListener>>>::_Vector_impl" = type { %"struct.std::_Vector_base<std::shared_ptr<rocksdb::EventListener>, std::allocator<std::shared_ptr<rocksdb::EventListener>>>::_Vector_impl_data" }
%"struct.std::_Vector_base<std::shared_ptr<rocksdb::EventListener>, std::allocator<std::shared_ptr<rocksdb::EventListener>>>::_Vector_impl_data" = type { ptr, ptr, ptr }
%"class.std::shared_ptr.46" = type { %"class.std::__shared_ptr.47" }
%"class.std::__shared_ptr.47" = type { ptr, %"class.std::__shared_count" }
%"class.std::shared_ptr.49" = type { %"class.std::__shared_ptr.50" }
%"class.std::__shared_ptr.50" = type { ptr, %"class.std::__shared_count" }
%"class.rocksdb::SmallEnumSet" = type { i64 }
%"class.std::shared_ptr.52" = type { %"class.std::__shared_ptr.53" }
%"class.std::__shared_ptr.53" = type { ptr, %"class.std::__shared_count" }
%"struct.rocksdb::ColumnFamilyOptions" = type <{ %"struct.rocksdb::AdvancedColumnFamilyOptions", ptr, %"class.std::shared_ptr.81", ptr, %"class.std::shared_ptr.84", i64, i8, i8, [6 x i8], %"struct.rocksdb::CompressionOptions", %"struct.rocksdb::CompressionOptions", i32, [4 x i8], %"class.std::shared_ptr.55", i64, i64, i8, [7 x i8], %"class.std::shared_ptr.87", %"class.std::vector.33", %"class.std::shared_ptr.90", %"class.std::shared_ptr.93", i32, [4 x i8] }>
%"struct.rocksdb::AdvancedColumnFamilyOptions" = type { i32, i32, i32, i64, i8, i64, double, ptr, double, i8, i64, %"class.std::shared_ptr.55", i32, i64, %"class.std::vector.58", i32, i32, i32, i64, i32, i8, i8, double, %"class.std::vector.63", i64, i8, i64, i64, i8, i8, [2 x i8], %"class.rocksdb::CompactionOptionsUniversal", %"struct.rocksdb::CompactionOptionsFIFO", i64, %"class.std::shared_ptr.73", %"class.std::vector.76", i64, i8, i8, i8, i8, i8, i64, i64, i64, i8, i8, i8, i64, i64, i8, i64, i64, i8, i8, double, double, i64, i32, %"class.std::shared_ptr.46", i8, i32, i8, i8, i32 }
%"class.std::vector.58" = type { %"struct.std::_Vector_base.59" }
%"struct.std::_Vector_base.59" = type { %"struct.std::_Vector_base<rocksdb::CompressionType, std::allocator<rocksdb::CompressionType>>::_Vector_impl" }
%"struct.std::_Vector_base<rocksdb::CompressionType, std::allocator<rocksdb::CompressionType>>::_Vector_impl" = type { %"struct.std::_Vector_base<rocksdb::CompressionType, std::allocator<rocksdb::CompressionType>>::_Vector_impl_data" }
%"struct.std::_Vector_base<rocksdb::CompressionType, std::allocator<rocksdb::CompressionType>>::_Vector_impl_data" = type { ptr, ptr, ptr }
%"class.std::vector.63" = type { %"struct.std::_Vector_base.64" }
%"struct.std::_Vector_base.64" = type { %"struct.std::_Vector_base<int, std::allocator<int>>::_Vector_impl" }
%"struct.std::_Vector_base<int, std::allocator<int>>::_Vector_impl" = type { %"struct.std::_Vector_base<int, std::allocator<int>>::_Vector_impl_data" }
%"struct.std::_Vector_base<int, std::allocator<int>>::_Vector_impl_data" = type { ptr, ptr, ptr }
%"class.rocksdb::CompactionOptionsUniversal" = type <{ i32, i32, i32, i32, i32, i32, i8, i8, [2 x i8] }>
%"struct.rocksdb::CompactionOptionsFIFO" = type { i64, i8, i64, %"class.std::vector.68" }
%"class.std::vector.68" = type { %"struct.std::_Vector_base.69" }
%"struct.std::_Vector_base.69" = type { %"struct.std::_Vector_base<rocksdb::FileTemperatureAge, std::allocator<rocksdb::FileTemperatureAge>>::_Vector_impl" }
%"struct.std::_Vector_base<rocksdb::FileTemperatureAge, std::allocator<rocksdb::FileTemperatureAge>>::_Vector_impl" = type { %"struct.std::_Vector_base<rocksdb::FileTemperatureAge, std::allocator<rocksdb::FileTemperatureAge>>::_Vector_impl_data" }
%"struct.std::_Vector_base<rocksdb::FileTemperatureAge, std::allocator<rocksdb::FileTemperatureAge>>::_Vector_impl_data" = type { ptr, ptr, ptr }
%"class.std::shared_ptr.73" = type { %"class.std::__shared_ptr.74" }
%"class.std::__shared_ptr.74" = type { ptr, %"class.std::__shared_count" }
%"class.std::vector.76" = type { %"struct.std::_Vector_base.77" }
%"struct.std::_Vector_base.77" = type { %"struct.std::_Vector_base<std::shared_ptr<rocksdb::TablePropertiesCollectorFactory>, std::allocator<std::shared_ptr<rocksdb::TablePropertiesCollectorFactory>>>::_Vector_impl" }
%"struct.std::_Vector_base<std::shared_ptr<rocksdb::TablePropertiesCollectorFactory>, std::allocator<std::shared_ptr<rocksdb::TablePropertiesCollectorFactory>>>::_Vector_impl" = type { %"struct.std::_Vector_base<std::shared_ptr<rocksdb::TablePropertiesCollectorFactory>, std::allocator<std::shared_ptr<rocksdb::TablePropertiesCollectorFactory>>>::_Vector_impl_data" }
%"struct.std::_Vector_base<std::shared_ptr<rocksdb::TablePropertiesCollectorFactory>, std::allocator<std::shared_ptr<rocksdb::TablePropertiesCollectorFactory>>>::_Vector_impl_data" = type { ptr, ptr, ptr }
%"class.std::shared_ptr.81" = type { %"class.std::__shared_ptr.82" }
%"class.std::__shared_ptr.82" = type { ptr, %"class.std::__shared_count" }
%"class.std::shared_ptr.84" = type { %"class.std::__shared_ptr.85" }
%"class.std::__shared_ptr.85" = type { ptr, %"class.std::__shared_count" }
%"struct.rocksdb::CompressionOptions" = type <{ i32, i32, i32, i32, i32, i32, i8, [7 x i8], i64, i8, [3 x i8], i32, i8, [7 x i8] }>
%"class.std::shared_ptr.55" = type { %"class.std::__shared_ptr.56" }
%"class.std::__shared_ptr.56" = type { ptr, %"class.std::__shared_count" }
%"class.std::shared_ptr.87" = type { %"class.std::__shared_ptr.88" }
%"class.std::__shared_ptr.88" = type { ptr, %"class.std::__shared_count" }
%"class.std::shared_ptr.90" = type { %"class.std::__shared_ptr.91" }
%"class.std::__shared_ptr.91" = type { ptr, %"class.std::__shared_count" }
%"class.std::shared_ptr.93" = type { %"class.std::__shared_ptr.94" }
%"class.std::__shared_ptr.94" = type { ptr, %"class.std::__shared_count" }
%"struct.rocksdb::FileOptions" = type <{ %"struct.rocksdb::EnvOptions", %"struct.rocksdb::IOOptions", i8, i8, [6 x i8] }>
%"struct.rocksdb::EnvOptions" = type { i8, i8, i8, i8, i8, i8, i64, i8, i8, i64, i64, i64, ptr }
%"struct.rocksdb::IOOptions" = type <{ %"class.std::chrono::duration", i8, [3 x i8], i32, i8, [7 x i8], %"class.std::unordered_map", i8, i8, i8, [5 x i8] }>
%"class.std::chrono::duration" = type { i64 }
%"class.std::unordered_map" = type { %"class.std::_Hashtable.96" }
%"class.std::_Hashtable.96" = type { ptr, i64, %"struct.std::__detail::_Hash_node_base", i64, %"struct.std::__detail::_Prime_rehash_policy", ptr }
%"class.std::unique_ptr" = type { %"struct.std::__uniq_ptr_data" }
%"struct.std::__uniq_ptr_data" = type { %"class.std::__uniq_ptr_impl" }
%"class.std::__uniq_ptr_impl" = type { %"class.std::tuple" }
%"class.std::tuple" = type { %"struct.std::_Tuple_impl" }
%"struct.std::_Tuple_impl" = type { %"struct.std::_Head_base.116" }
%"struct.std::_Head_base.116" = type { ptr }
%"class.std::map" = type { %"class.std::_Rb_tree" }
%"class.std::_Rb_tree" = type { %"struct.std::_Rb_tree<unsigned long, std::pair<const unsigned long, std::shared_ptr<rocksdb::blob_db::BlobFile>>, std::_Select1st<std::pair<const unsigned long, std::shared_ptr<rocksdb::blob_db::BlobFile>>>, std::less<unsigned long>>::_Rb_tree_impl" }
%"struct.std::_Rb_tree<unsigned long, std::pair<const unsigned long, std::shared_ptr<rocksdb::blob_db::BlobFile>>, std::_Select1st<std::pair<const unsigned long, std::shared_ptr<rocksdb::blob_db::BlobFile>>>, std::less<unsigned long>>::_Rb_tree_impl" = type { %"struct.std::_Rb_tree_key_compare", %"struct.std::_Rb_tree_header" }
%"struct.std::_Rb_tree_key_compare" = type { %"struct.std::less" }
%"struct.std::less" = type { i8 }
%"struct.std::_Rb_tree_header" = type { %"struct.std::_Rb_tree_node_base", i64 }
%"struct.std::_Rb_tree_node_base" = type { i32, ptr, ptr, ptr }
%"class.std::shared_ptr.15" = type { %"class.std::__shared_ptr.16" }
%"class.std::__shared_ptr.16" = type { ptr, %"class.std::__shared_count" }
%"class.std::set" = type { %"class.std::_Rb_tree.120" }
%"class.std::_Rb_tree.120" = type { %"struct.std::_Rb_tree<std::shared_ptr<rocksdb::blob_db::BlobFile>, std::shared_ptr<rocksdb::blob_db::BlobFile>, std::_Identity<std::shared_ptr<rocksdb::blob_db::BlobFile>>, rocksdb::blob_db::BlobFileComparatorTTL>::_Rb_tree_impl" }
%"struct.std::_Rb_tree<std::shared_ptr<rocksdb::blob_db::BlobFile>, std::shared_ptr<rocksdb::blob_db::BlobFile>, std::_Identity<std::shared_ptr<rocksdb::blob_db::BlobFile>>, rocksdb::blob_db::BlobFileComparatorTTL>::_Rb_tree_impl" = type { %"struct.std::_Rb_tree_key_compare.124", %"struct.std::_Rb_tree_header" }
%"struct.std::_Rb_tree_key_compare.124" = type { %"struct.rocksdb::blob_db::BlobFileComparatorTTL" }
%"struct.rocksdb::blob_db::BlobFileComparatorTTL" = type { i8 }
%class.TimerQueue = type <{ i8, i8, [6 x i8], i64, %"class.std::condition_variable", %"class.std::mutex", %"class.TimerQueue::Queue", %"class.std::thread", i8, [7 x i8] }>
%"class.std::condition_variable" = type { %"class.std::__condvar" }
%"class.std::__condvar" = type { %union.pthread_cond_t }
%union.pthread_cond_t = type { %struct.__pthread_cond_s }
%struct.__pthread_cond_s = type { %union.__atomic_wide_counter, %union.__atomic_wide_counter, [2 x i32], [2 x i32], i32, i32, [2 x i32] }
%union.__atomic_wide_counter = type { i64 }
%"class.std::mutex" = type { %"class.std::__mutex_base" }
%"class.std::__mutex_base" = type { %union.pthread_mutex_t }
%union.pthread_mutex_t = type { %struct.__pthread_mutex_s }
%struct.__pthread_mutex_s = type { i32, i32, i32, i32, i32, i16, i16, %struct.__pthread_internal_list }
%struct.__pthread_internal_list = type { ptr, ptr }
%"class.TimerQueue::Queue" = type { %"class.std::priority_queue.base", [7 x i8] }
%"class.std::priority_queue.base" = type <{ %"class.std::vector.125", %"struct.std::greater" }>
%"class.std::vector.125" = type { %"struct.std::_Vector_base.126" }
%"struct.std::_Vector_base.126" = type { %"struct.std::_Vector_base<TimerQueue::WorkItem, std::allocator<TimerQueue::WorkItem>>::_Vector_impl" }
%"struct.std::_Vector_base<TimerQueue::WorkItem, std::allocator<TimerQueue::WorkItem>>::_Vector_impl" = type { %"struct.std::_Vector_base<TimerQueue::WorkItem, std::allocator<TimerQueue::WorkItem>>::_Vector_impl_data" }
%"struct.std::_Vector_base<TimerQueue::WorkItem, std::allocator<TimerQueue::WorkItem>>::_Vector_impl_data" = type { ptr, ptr, ptr }
%"struct.std::greater" = type { i8 }
%"class.std::thread" = type { %"class.std::thread::id" }
%"class.std::thread::id" = type { i64 }
%"struct.std::atomic.131" = type { %"struct.std::__atomic_base.132" }
%"struct.std::__atomic_base.132" = type { i32 }
%"class.std::__cxx11::list" = type { %"class.std::__cxx11::_List_base" }
%"class.std::__cxx11::_List_base" = type { %"struct.std::__cxx11::_List_base<std::shared_ptr<rocksdb::blob_db::BlobFile>, std::allocator<std::shared_ptr<rocksdb::blob_db::BlobFile>>>::_List_impl" }
%"struct.std::__cxx11::_List_base<std::shared_ptr<rocksdb::blob_db::BlobFile>, std::allocator<std::shared_ptr<rocksdb::blob_db::BlobFile>>>::_List_impl" = type { %"struct.std::__detail::_List_node_header" }
%"struct.std::__detail::_List_node_header" = type { %"struct.std::__detail::_List_node_base", i64 }
%"struct.std::__detail::_List_node_base" = type { ptr, ptr }
%"class.rocksdb::port::Mutex" = type { %union.pthread_mutex_t }
%"class.rocksdb::Status" = type { i8, i8, i8, i8, i8, i8, %"class.std::unique_ptr.147" }
%"class.std::unique_ptr.147" = type { %"struct.std::__uniq_ptr_data.148" }
%"struct.std::__uniq_ptr_data.148" = type { %"class.std::__uniq_ptr_impl.149" }
%"class.std::__uniq_ptr_impl.149" = type { %"class.std::tuple.150" }
%"class.std::tuple.150" = type { %"struct.std::_Tuple_impl.151" }
%"struct.std::_Tuple_impl.151" = type { %"struct.std::_Head_base.154" }
%"struct.std::_Head_base.154" = type { ptr }

; Function Attrs: mustprogress uwtable
define linkonce_odr noundef i64 @_ZN7rocksdb7blob_db10BlobDBImpl8EpochNowEv(ptr noundef nonnull align 8 dereferenceable(2448) %this) #0 comdat align 2 {
entry:
  %this.addr = alloca ptr, align 8
  store ptr %this, ptr %this.addr, align 8
  %this1 = load ptr, ptr %this.addr, align 8
  %clock_ = getelementptr inbounds %"class.rocksdb::blob_db::BlobDBImpl", ptr %this1, i32 0, i32 4
  %0 = load ptr, ptr %clock_, align 8
  %vtable = load ptr, ptr %0, align 8
  %vfn = getelementptr inbounds ptr, ptr %vtable, i64 19
  %1 = load ptr, ptr %vfn, align 8
  %call = call noundef i64 %1(ptr noundef nonnull align 8 dereferenceable(32) %0)
  %div = udiv i64 %call, 1000000
  ret i64 %div
}

; Function Attrs: mustprogress uwtable
define void @_ZN7rocksdb7blob_db10BlobDBImpl10PutWithTTLERKNS_12WriteOptionsERKNS_5SliceES7_m(ptr noalias sret(%"class.rocksdb::Status") align 8 %agg.result, ptr noundef nonnull align 8 dereferenceable(2448) %this, ptr noundef nonnull align 8 dereferenceable(24) %options, ptr noundef nonnull align 8 dereferenceable(16) %key, ptr noundef nonnull align 8 dereferenceable(16) %value, i64 noundef %ttl) unnamed_addr #0 align 2 {
entry:
  %result.ptr = alloca ptr, align 8
  %this.addr = alloca ptr, align 8
  %options.addr = alloca ptr, align 8
  %key.addr = alloca ptr, align 8
  %value.addr = alloca ptr, align 8
  %ttl.addr = alloca i64, align 8
  %now = alloca i64, align 8
  %expiration = alloca i64, align 8
  store ptr %agg.result, ptr %result.ptr, align 8
  store ptr %this, ptr %this.addr, align 8
  store ptr %options, ptr %options.addr, align 8
  store ptr %key, ptr %key.addr, align 8
  store ptr %value, ptr %value.addr, align 8
  store i64 %ttl, ptr %ttl.addr, align 8
  %this1 = load ptr, ptr %this.addr, align 8
  %call = call noundef i64 @_ZN7rocksdb7blob_db10BlobDBImpl8EpochNowEv(ptr noundef nonnull align 8 dereferenceable(2448) %this1)
  store i64 %call, ptr %now, align 8
  %0 = load i64, ptr %now, align 8
  %sub = sub i64 -1, %0
  %1 = load i64, ptr %ttl.addr, align 8
  %cmp = icmp ugt i64 %sub, %1
  br i1 %cmp, label %cond.true, label %cond.false

cond.true:                                        ; preds = %entry
  %2 = load i64, ptr %now, align 8
  %3 = load i64, ptr %ttl.addr, align 8
  %add = add i64 %2, %3
  br label %cond.end

cond.false:                                       ; preds = %entry
  br label %cond.end

cond.end:                                         ; preds = %cond.false, %cond.true
  %cond = phi i64 [ %add, %cond.true ], [ -1, %cond.false ]
  store i64 %cond, ptr %expiration, align 8
  %4 = load ptr, ptr %options.addr, align 8
  %5 = load ptr, ptr %key.addr, align 8
  %6 = load ptr, ptr %value.addr, align 8
  %7 = load i64, ptr %expiration, align 8
  %vtable = load ptr, ptr %this1, align 8
  %vfn = getelementptr inbounds ptr, ptr %vtable, i64 153
  %8 = load ptr, ptr %vfn, align 8
  call void %8(ptr sret(%"class.rocksdb::Status") align 8 %agg.result, ptr noundef nonnull align 8 dereferenceable(2448) %this1, ptr noundef nonnull align 8 dereferenceable(24) %4, ptr noundef nonnull align 8 dereferenceable(16) %5, ptr noundef nonnull align 8 dereferenceable(16) %6, i64 noundef %7)
  ret void
}