; Function Attrs: mustprogress uwtable
define void @_ZN7rocksdb7blob_db10BlobDBImpl10PutWithTTLERKNS_12WriteOptionsERKNS_5SliceES7_m(ptr noalias sret(%"class.rocksdb::Status") align 8 %agg.result, ptr noundef nonnull align 8 dereferenceable(2448) %this, ptr noundef nonnull align 8 dereferenceable(24) %options, ptr noundef nonnull align 8 dereferenceable(16) %key, ptr noundef nonnull align 8 dereferenceable(16) %value, i64 noundef %ttl) unnamed_addr #3 align 2 {
entry:
  %clock_.i = getelementptr inbounds i8, ptr %this, i64 80
  %0 = load ptr, ptr %clock_.i, align 8
  %vtable.i = load ptr, ptr %0, align 8
  %vfn.i = getelementptr inbounds i8, ptr %vtable.i, i64 152
  %1 = load ptr, ptr %vfn.i, align 8
  %call.i = tail call noundef i64 %1(ptr noundef nonnull align 8 dereferenceable(32) %0)
  %div.i = udiv i64 %call.i, 1000000
  %cond = tail call i64 @llvm.uadd.sat.i64(i64 %div.i, i64 %ttl)
  %vtable = load ptr, ptr %this, align 8
  %vfn = getelementptr inbounds i8, ptr %vtable, i64 1224
  %2 = load ptr, ptr %vfn, align 8
  tail call void %2(ptr sret(%"class.rocksdb::Status") align 8 %agg.result, ptr noundef nonnull align 8 dereferenceable(2448) %this, ptr noundef nonnull align 8 dereferenceable(24) %options, ptr noundef nonnull align 8 dereferenceable(16) %key, ptr noundef nonnull align 8 dereferenceable(16) %value, i64 noundef %cond)
  ret void
}